target datalayout = "e-m:e-p270:32:32-p271:32:32-p272:64:64-i64:64-i128:128-f80:128-n8:16:32:64-S128"
target triple = "x86_64-pc-linux-gnu"

%"class.clang::SemaBase::SemaDiagnosticBuilder" = type { ptr, %"class.clang::SourceLocation", i32, ptr, i8, [7 x i8], %"class.std::optional.657", %"class.std::optional.667" }
%"class.clang::SourceLocation" = type { i32 }
%"class.std::optional.657" = type { %"struct.std::_Optional_base.658" }
%"struct.std::_Optional_base.658" = type { %"struct.std::_Optional_payload.660" }
%"struct.std::_Optional_payload.660" = type { %"struct.std::_Optional_payload.base.664", [7 x i8] }
%"struct.std::_Optional_payload.base.664" = type { %"struct.std::_Optional_payload_base.base.663" }
%"struct.std::_Optional_payload_base.base.663" = type { %"union.std::_Optional_payload_base<clang::SemaBase::ImmediateDiagBuilder>::_Storage", i8 }
%"union.std::_Optional_payload_base<clang::SemaBase::ImmediateDiagBuilder>::_Storage" = type { %"class.clang::SemaBase::ImmediateDiagBuilder" }
%"class.clang::SemaBase::ImmediateDiagBuilder" = type <{ %"class.clang::DiagnosticBuilder.base", [6 x i8], ptr, i32, [4 x i8] }>
%"class.clang::DiagnosticBuilder.base" = type <{ %"class.clang::StreamingDiagnostic", ptr, i8, i8 }>
%"class.clang::StreamingDiagnostic" = type { ptr, ptr }
%"class.std::optional.667" = type { %"struct.std::_Optional_base.668" }
%"struct.std::_Optional_base.668" = type { %"struct.std::_Optional_payload.670" }
%"struct.std::_Optional_payload.670" = type { %"struct.std::_Optional_payload_base.base.672", [3 x i8] }
%"struct.std::_Optional_payload_base.base.672" = type <{ %"union.std::_Optional_payload_base<unsigned int>::_Storage", i8 }>
%"union.std::_Optional_payload_base<unsigned int>::_Storage" = type { i32 }
%"class.clang::QualType" = type { %"class.llvm::PointerIntPair" }
%"class.llvm::PointerIntPair" = type { %"struct.llvm::detail::PunnedPointer" }
%"struct.llvm::detail::PunnedPointer" = type { [8 x i8] }
%class.IntExprConverter = type { %"class.clang::Sema::ICEConvertDiagnoser.base", i32, i32, ptr }
%"class.clang::Sema::ICEConvertDiagnoser.base" = type { %"class.clang::Sema::ContextualImplicitConverter.base", i8 }
%"class.clang::Sema::ContextualImplicitConverter.base" = type <{ ptr, i8, i8 }>
%"struct.std::_Optional_payload_base.662" = type { %"union.std::_Optional_payload_base<clang::SemaBase::ImmediateDiagBuilder>::_Storage", i8, [7 x i8] }
%"class.clang::DiagnosticBuilder" = type <{ %"class.clang::StreamingDiagnostic", ptr, i8, i8, [6 x i8] }>

; Function Attrs: mustprogress nounwind uwtable
define linkonce_odr hidden void @_ZNK5clang17DiagnosticBuilder5ClearEv(ptr noundef nonnull align 8 dereferenceable(26) %0) #0 comdat align 2 {
  %2 = alloca ptr, align 8
  store ptr %0, ptr %2, align 8
  %3 = load ptr, ptr %2, align 8
  %4 = getelementptr inbounds nuw %"class.clang::DiagnosticBuilder", ptr %3, i32 0, i32 1
  store ptr null, ptr %4, align 8
  %5 = getelementptr inbounds nuw %"class.clang::DiagnosticBuilder", ptr %3, i32 0, i32 2
  store i8 0, ptr %5, align 8
  %6 = getelementptr inbounds nuw %"class.clang::DiagnosticBuilder", ptr %3, i32 0, i32 3
  store i8 0, ptr %6, align 1
  ret void
}

; Function Attrs: mustprogress nounwind uwtable
define linkonce_odr hidden void @_ZN5clang19StreamingDiagnosticC2Ev(ptr noundef nonnull align 8 dereferenceable(16) %0) unnamed_addr #0 comdat align 2 {
  %2 = alloca ptr, align 8
  store ptr %0, ptr %2, align 8
  %3 = load ptr, ptr %2, align 8
  %4 = getelementptr inbounds nuw %"class.clang::StreamingDiagnostic", ptr %3, i32 0, i32 0
  store ptr null, ptr %4, align 8
  %5 = getelementptr inbounds nuw %"class.clang::StreamingDiagnostic", ptr %3, i32 0, i32 1
  store ptr null, ptr %5, align 8
  ret void
}

; Function Attrs: mustprogress nounwind uwtable
define linkonce_odr hidden void @_ZN5clang17DiagnosticBuilderC2ERKS0_(ptr noundef nonnull align 8 dereferenceable(26) %0, ptr noundef nonnull align 8 dereferenceable(26) %1) unnamed_addr #0 comdat align 2 {
  %3 = alloca ptr, align 8
  %4 = alloca ptr, align 8
  store ptr %0, ptr %3, align 8
  store ptr %1, ptr %4, align 8
  %5 = load ptr, ptr %3, align 8
  %6 = getelementptr inbounds i8, ptr %5, i64 0
  call void @llvm.memset.p0.i64(ptr align 8 %6, i8 0, i64 16, i1 false)
  call void @_ZN5clang19StreamingDiagnosticC2Ev(ptr noundef nonnull align 8 dereferenceable(16) %5) #11
  %7 = getelementptr inbounds nuw %"class.clang::DiagnosticBuilder", ptr %5, i32 0, i32 1
  store ptr null, ptr %7, align 8
  %8 = getelementptr inbounds nuw %"class.clang::DiagnosticBuilder", ptr %5, i32 0, i32 2
  store i8 0, ptr %8, align 8
  %9 = getelementptr inbounds nuw %"class.clang::DiagnosticBuilder", ptr %5, i32 0, i32 3
  store i8 0, ptr %9, align 1
  %10 = load ptr, ptr %4, align 8
  %11 = getelementptr inbounds nuw %"class.clang::DiagnosticBuilder", ptr %10, i32 0, i32 1
  %12 = load ptr, ptr %11, align 8
  %13 = getelementptr inbounds nuw %"class.clang::DiagnosticBuilder", ptr %5, i32 0, i32 1
  store ptr %12, ptr %13, align 8
  %14 = load ptr, ptr %4, align 8
  %15 = getelementptr inbounds nuw %"class.clang::StreamingDiagnostic", ptr %14, i32 0, i32 0
  %16 = load ptr, ptr %15, align 8
  %17 = getelementptr inbounds nuw %"class.clang::StreamingDiagnostic", ptr %5, i32 0, i32 0
  store ptr %16, ptr %17, align 8
  %18 = load ptr, ptr %4, align 8
  %19 = getelementptr inbounds nuw %"class.clang::DiagnosticBuilder", ptr %18, i32 0, i32 2
  %20 = load i8, ptr %19, align 8
  %21 = trunc i8 %20 to i1
  %22 = getelementptr inbounds nuw %"class.clang::DiagnosticBuilder", ptr %5, i32 0, i32 2
  %23 = zext i1 %21 to i8
  store i8 %23, ptr %22, align 8
  %24 = load ptr, ptr %4, align 8
  %25 = getelementptr inbounds nuw %"class.clang::DiagnosticBuilder", ptr %24, i32 0, i32 3
  %26 = load i8, ptr %25, align 1
  %27 = trunc i8 %26 to i1
  %28 = getelementptr inbounds nuw %"class.clang::DiagnosticBuilder", ptr %5, i32 0, i32 3
  %29 = zext i1 %27 to i8
  store i8 %29, ptr %28, align 1
  %30 = load ptr, ptr %4, align 8
  call void @_ZNK5clang17DiagnosticBuilder5ClearEv(ptr noundef nonnull align 8 dereferenceable(26) %30)
  ret void
}

; Function Attrs: mustprogress nounwind uwtable
define linkonce_odr hidden void @_ZN5clang8SemaBase20ImmediateDiagBuilderC2ERKS1_(ptr noundef nonnull align 8 dereferenceable(44) %0, ptr noundef nonnull align 8 dereferenceable(44) %1) unnamed_addr #0 comdat align 2 {
  %3 = alloca ptr, align 8
  %4 = alloca ptr, align 8
  store ptr %0, ptr %3, align 8
  store ptr %1, ptr %4, align 8
  %5 = load ptr, ptr %3, align 8
  %6 = load ptr, ptr %4, align 8
  call void @_ZN5clang17DiagnosticBuilderC2ERKS0_(ptr noundef nonnull align 8 dereferenceable(26) %5, ptr noundef nonnull align 8 dereferenceable(26) %6)
  %7 = getelementptr inbounds nuw %"class.clang::SemaBase::ImmediateDiagBuilder", ptr %5, i32 0, i32 2
  %8 = load ptr, ptr %4, align 8
  %9 = getelementptr inbounds nuw %"class.clang::SemaBase::ImmediateDiagBuilder", ptr %8, i32 0, i32 2
  call void @llvm.memcpy.p0.p0.i64(ptr align 8 %7, ptr align 8 %9, i64 12, i1 false)
  ret void
}

; Function Attrs: mustprogress nounwind uwtable
define linkonce_odr void @_ZSt10_ConstructIN5clang8SemaBase20ImmediateDiagBuilderEJRKS2_EEvPT_DpOT0_(ptr noundef %0, ptr noundef nonnull align 8 dereferenceable(44) %1) #0 comdat {
  %3 = alloca ptr, align 8
  %4 = alloca ptr, align 8
  store ptr %0, ptr %3, align 8
  store ptr %1, ptr %4, align 8
  %5 = load ptr, ptr %3, align 8
  %6 = load ptr, ptr %4, align 8
  call void @_ZN5clang8SemaBase20ImmediateDiagBuilderC2ERKS1_(ptr noundef nonnull align 8 dereferenceable(44) %5, ptr noundef nonnull align 8 dereferenceable(44) %6)
  ret void
}

; Function Attrs: mustprogress nounwind uwtable
define linkonce_odr hidden void @_ZNSt22_Optional_payload_baseIN5clang8SemaBase20ImmediateDiagBuilderEE12_M_constructIJRKS2_EEEvDpOT_(ptr noundef nonnull align 8 dereferenceable(49) %0, ptr noundef nonnull align 8 dereferenceable(44) %1) #0 comdat align 2 {
  %3 = alloca ptr, align 8
  %4 = alloca ptr, align 8
  store ptr %0, ptr %3, align 8
  store ptr %1, ptr %4, align 8
  %5 = load ptr, ptr %3, align 8
  %6 = getelementptr inbounds nuw %"struct.std::_Optional_payload_base.662", ptr %5, i32 0, i32 0
  %7 = load ptr, ptr %4, align 8
  call void @_ZSt10_ConstructIN5clang8SemaBase20ImmediateDiagBuilderEJRKS2_EEvPT_DpOT0_(ptr noundef %6, ptr noundef nonnull align 8 dereferenceable(44) %7)
  %8 = getelementptr inbounds nuw %"struct.std::_Optional_payload_base.662", ptr %5, i32 0, i32 1
  store i8 1, ptr %8, align 8
  ret void
}

; Function Attrs: mustprogress nounwind uwtable
define linkonce_odr hidden noundef nonnull align 8 dereferenceable(44) ptr @_ZNKSt22_Optional_payload_baseIN5clang8SemaBase20ImmediateDiagBuilderEE6_M_getEv(ptr noundef nonnull align 8 dereferenceable(49) %0) #0 comdat align 2 {
  %2 = alloca ptr, align 8
  store ptr %0, ptr %2, align 8
  %3 = load ptr, ptr %2, align 8
  %4 = getelementptr inbounds nuw %"struct.std::_Optional_payload_base.662", ptr %3, i32 0, i32 0
  ret ptr %4
}

; Function Attrs: mustprogress nounwind uwtable
define linkonce_odr hidden void @_ZNSt22_Optional_payload_baseIN5clang8SemaBase20ImmediateDiagBuilderEE8_StorageIS2_Lb0EEC2Ev(ptr noundef nonnull align 8 dereferenceable(48) %0) unnamed_addr #0 comdat align 2 {
  %2 = alloca ptr, align 8
  store ptr %0, ptr %2, align 8
  ret void
}

; Function Attrs: mustprogress nounwind uwtable
define linkonce_odr hidden void @_ZNSt22_Optional_payload_baseIN5clang8SemaBase20ImmediateDiagBuilderEEC2EbRKS3_(ptr noundef nonnull align 8 dereferenceable(49) %0, i1 noundef zeroext %1, ptr noundef nonnull align 8 dereferenceable(49) %2) unnamed_addr #0 comdat align 2 {
  %4 = alloca ptr, align 8
  %5 = alloca i8, align 1
  %6 = alloca ptr, align 8
  store ptr %0, ptr %4, align 8
  %7 = zext i1 %1 to i8
  store i8 %7, ptr %5, align 1
  store ptr %2, ptr %6, align 8
  %8 = load ptr, ptr %4, align 8
  %9 = getelementptr inbounds nuw %"struct.std::_Optional_payload_base.662", ptr %8, i32 0, i32 0
  call void @_ZNSt22_Optional_payload_baseIN5clang8SemaBase20ImmediateDiagBuilderEE8_StorageIS2_Lb0EEC2Ev(ptr noundef nonnull align 8 dereferenceable(48) %9) #11
  %10 = getelementptr inbounds nuw %"struct.std::_Optional_payload_base.662", ptr %8, i32 0, i32 1
  store i8 0, ptr %10, align 8
  %11 = load ptr, ptr %6, align 8
  %12 = getelementptr inbounds nuw %"struct.std::_Optional_payload_base.662", ptr %11, i32 0, i32 1
  %13 = load i8, ptr %12, align 8
  %14 = trunc i8 %13 to i1
  br i1 %14, label %15, label %18

15:                                               ; preds = %3
  %16 = load ptr, ptr %6, align 8
  %17 = call noundef nonnull align 8 dereferenceable(44) ptr @_ZNKSt22_Optional_payload_baseIN5clang8SemaBase20ImmediateDiagBuilderEE6_M_getEv(ptr noundef nonnull align 8 dereferenceable(49) %16) #11
  call void @_ZNSt22_Optional_payload_baseIN5clang8SemaBase20ImmediateDiagBuilderEE12_M_constructIJRKS2_EEEvDpOT_(ptr noundef nonnull align 8 dereferenceable(49) %8, ptr noundef nonnull align 8 dereferenceable(44) %17)
  br label %18

18:                                               ; preds = %15, %3
  ret void
}

; Function Attrs: mustprogress nounwind uwtable
define linkonce_odr hidden void @_ZNSt17_Optional_payloadIN5clang8SemaBase20ImmediateDiagBuilderELb1ELb0ELb0EECI2St22_Optional_payload_baseIS2_EEbRKS4_IS2_E(ptr noundef nonnull align 8 dereferenceable(49) %0, i1 noundef zeroext %1, ptr noundef nonnull align 8 dereferenceable(49) %2) unnamed_addr #0 comdat align 2 {
  %4 = alloca ptr, align 8
  %5 = alloca i8, align 1
  %6 = alloca ptr, align 8
  store ptr %0, ptr %4, align 8
  %7 = zext i1 %1 to i8
  store i8 %7, ptr %5, align 1
  store ptr %2, ptr %6, align 8
  %8 = load ptr, ptr %4, align 8
  %9 = load i8, ptr %5, align 1
  %10 = trunc i8 %9 to i1
  %11 = load ptr, ptr %6, align 8
  call void @_ZNSt22_Optional_payload_baseIN5clang8SemaBase20ImmediateDiagBuilderEEC2EbRKS3_(ptr noundef nonnull align 8 dereferenceable(49) %8, i1 noundef zeroext %10, ptr noundef nonnull align 8 dereferenceable(49) %11)
  ret void
}

; Function Attrs: mustprogress nounwind uwtable
define linkonce_odr hidden void @_ZNSt17_Optional_payloadIN5clang8SemaBase20ImmediateDiagBuilderELb0ELb0ELb0EECI2St22_Optional_payload_baseIS2_EEbRKS4_IS2_E(ptr noundef nonnull align 8 dereferenceable(49) %0, i1 noundef zeroext %1, ptr noundef nonnull align 8 dereferenceable(49) %2) unnamed_addr #0 comdat align 2 {
  %4 = alloca ptr, align 8
  %5 = alloca i8, align 1
  %6 = alloca ptr, align 8
  store ptr %0, ptr %4, align 8
  %7 = zext i1 %1 to i8
  store i8 %7, ptr %5, align 1
  store ptr %2, ptr %6, align 8
  %8 = load ptr, ptr %4, align 8
  %9 = load i8, ptr %5, align 1
  %10 = trunc i8 %9 to i1
  %11 = load ptr, ptr %6, align 8
  call void @_ZNSt17_Optional_payloadIN5clang8SemaBase20ImmediateDiagBuilderELb1ELb0ELb0EECI2St22_Optional_payload_baseIS2_EEbRKS4_IS2_E(ptr noundef nonnull align 8 dereferenceable(49) %8, i1 noundef zeroext %10, ptr noundef nonnull align 8 dereferenceable(49) %11)
  ret void
}

; Function Attrs: mustprogress nounwind uwtable
define linkonce_odr hidden void @_ZNSt14_Optional_baseIN5clang8SemaBase20ImmediateDiagBuilderELb0ELb0EEC2ERKS3_(ptr noundef nonnull align 8 dereferenceable(56) %0, ptr noundef nonnull align 8 dereferenceable(56) %1) unnamed_addr #0 comdat align 2 {
  %3 = alloca ptr, align 8
  %4 = alloca ptr, align 8
  store ptr %0, ptr %3, align 8
  store ptr %1, ptr %4, align 8
  %5 = load ptr, ptr %3, align 8
  %6 = getelementptr inbounds nuw %"struct.std::_Optional_base.658", ptr %5, i32 0, i32 0
  %7 = load ptr, ptr %4, align 8
  %8 = getelementptr inbounds nuw %"struct.std::_Optional_base.658", ptr %7, i32 0, i32 0
  %9 = getelementptr inbounds nuw %"struct.std::_Optional_payload_base.662", ptr %8, i32 0, i32 1
  %10 = load i8, ptr %9, align 8
  %11 = trunc i8 %10 to i1
  %12 = load ptr, ptr %4, align 8
  %13 = getelementptr inbounds nuw %"struct.std::_Optional_base.658", ptr %12, i32 0, i32 0
  call void @_ZNSt17_Optional_payloadIN5clang8SemaBase20ImmediateDiagBuilderELb0ELb0ELb0EECI2St22_Optional_payload_baseIS2_EEbRKS4_IS2_E(ptr noundef nonnull align 8 dereferenceable(49) %6, i1 noundef zeroext %11, ptr noundef nonnull align 8 dereferenceable(49) %13)
  ret void
}

; Function Attrs: mustprogress nounwind uwtable
define linkonce_odr hidden void @_ZNSt8optionalIN5clang8SemaBase20ImmediateDiagBuilderEEC2ERKS3_(ptr noundef nonnull align 8 dereferenceable(56) %0, ptr noundef nonnull align 8 dereferenceable(56) %1) unnamed_addr #0 comdat align 2 {
  %3 = alloca ptr, align 8
  %4 = alloca ptr, align 8
  store ptr %0, ptr %3, align 8
  store ptr %1, ptr %4, align 8
  %5 = load ptr, ptr %3, align 8
  %6 = load ptr, ptr %4, align 8
  call void @_ZNSt14_Optional_baseIN5clang8SemaBase20ImmediateDiagBuilderELb0ELb0EEC2ERKS3_(ptr noundef nonnull align 8 dereferenceable(56) %5, ptr noundef nonnull align 8 dereferenceable(56) %6)
  ret void
}

; Function Attrs: mustprogress nounwind uwtable
define linkonce_odr hidden void @_ZN5clang8SemaBase21SemaDiagnosticBuilderC2ERKS1_(ptr noundef nonnull align 8 dereferenceable(96) %0, ptr noundef nonnull align 8 dereferenceable(96) %1) unnamed_addr #0 comdat align 2 {
  %3 = alloca ptr, align 8
  %4 = alloca ptr, align 8
  store ptr %0, ptr %3, align 8
  store ptr %1, ptr %4, align 8
  %5 = load ptr, ptr %3, align 8
  %6 = getelementptr inbounds nuw %"class.clang::SemaBase::SemaDiagnosticBuilder", ptr %5, i32 0, i32 0
  %7 = load ptr, ptr %4, align 8
  %8 = getelementptr inbounds nuw %"class.clang::SemaBase::SemaDiagnosticBuilder", ptr %7, i32 0, i32 0
  call void @llvm.memcpy.p0.p0.i64(ptr align 8 %6, ptr align 8 %8, i64 25, i1 false)
  %9 = getelementptr inbounds nuw %"class.clang::SemaBase::SemaDiagnosticBuilder", ptr %5, i32 0, i32 6
  %10 = load ptr, ptr %4, align 8
  %11 = getelementptr inbounds nuw %"class.clang::SemaBase::SemaDiagnosticBuilder", ptr %10, i32 0, i32 6
  call void @_ZNSt8optionalIN5clang8SemaBase20ImmediateDiagBuilderEEC2ERKS3_(ptr noundef nonnull align 8 dereferenceable(56) %9, ptr noundef nonnull align 8 dereferenceable(56) %11)
  %12 = getelementptr inbounds nuw %"class.clang::SemaBase::SemaDiagnosticBuilder", ptr %5, i32 0, i32 7
  %13 = load ptr, ptr %4, align 8
  %14 = getelementptr inbounds nuw %"class.clang::SemaBase::SemaDiagnosticBuilder", ptr %13, i32 0, i32 7
  call void @llvm.memcpy.p0.p0.i64(ptr align 8 %12, ptr align 8 %14, i64 8, i1 false)
  ret void
}

; Function Attrs: mustprogress nounwind uwtable
define internal noundef i32 @_ZZN5clang11SemaOpenACC12ActOnIntExprENS_20OpenACCDirectiveKindENS_17OpenACCClauseKindENS_14SourceLocationEPNS_4ExprEENK16IntExprConverter11getDiagKindEv(ptr noundef nonnull align 8 dereferenceable(32) %0) #0 align 2 {
  %2 = alloca i32, align 4
  %3 = alloca ptr, align 8
  store ptr %0, ptr %3, align 8
  %4 = load ptr, ptr %3, align 8
  %5 = getelementptr inbounds nuw %class.IntExprConverter, ptr %4, i32 0, i32 2
  %6 = load i32, ptr %5, align 8
  %7 = icmp ne i32 %6, 50
  br i1 %7, label %8, label %9

8:                                                ; preds = %1
  store i32 0, ptr %2, align 4
  br label %15

9:                                                ; preds = %1
  %10 = getelementptr inbounds nuw %class.IntExprConverter, ptr %4, i32 0, i32 1
  %11 = load i32, ptr %10, align 4
  %12 = icmp ne i32 %11, 20
  br i1 %12, label %13, label %14

13:                                               ; preds = %9
  store i32 1, ptr %2, align 4
  br label %15

14:                                               ; preds = %9
  store i32 2, ptr %2, align 4
  br label %15

15:                                               ; preds = %14, %13, %8
  %16 = load i32, ptr %2, align 4
  ret i32 %16
}

; Function Attrs: mustprogress nounwind uwtable
define internal void @_ZZN5clang11SemaOpenACC12ActOnIntExprENS_20OpenACCDirectiveKindENS_17OpenACCClauseKindENS_14SourceLocationEPNS_4ExprEEN16IntExprConverter14diagnoseNotIntERNS_4SemaES3_NS_8QualTypeE(ptr dead_on_unwind noalias writable sret(%"class.clang::SemaBase::SemaDiagnosticBuilder") align 8 %0, ptr noundef nonnull align 8 dereferenceable(32) %1, ptr noundef nonnull align 8 dereferenceable(17560) %2, i32 %3, i64 %4) unnamed_addr #0 align 2 {
  %6 = alloca ptr, align 8
  %7 = alloca %"class.clang::SourceLocation", align 4
  %8 = alloca %"class.clang::QualType", align 8
  %9 = alloca ptr, align 8
  %10 = alloca ptr, align 8
  %11 = alloca %"class.clang::SemaBase::SemaDiagnosticBuilder", align 8
  %12 = alloca %"class.clang::SourceLocation", align 4
  %13 = alloca i32, align 4
  store ptr %0, ptr %6, align 8
  %14 = getelementptr inbounds nuw %"class.clang::SourceLocation", ptr %7, i32 0, i32 0
  store i32 %3, ptr %14, align 4
  %15 = getelementptr inbounds nuw %"class.clang::QualType", ptr %8, i32 0, i32 0
  %16 = getelementptr inbounds nuw %"class.llvm::PointerIntPair", ptr %15, i32 0, i32 0
  %17 = getelementptr inbounds nuw %"struct.llvm::detail::PunnedPointer", ptr %16, i32 0, i32 0
  store i64 %4, ptr %17, align 8
  store ptr %1, ptr %9, align 8
  store ptr %2, ptr %10, align 8
  %18 = load ptr, ptr %9, align 8
  %19 = load ptr, ptr %10, align 8
  %20 = getelementptr inbounds i8, ptr %19, i64 8
  call void @llvm.memcpy.p0.p0.i64(ptr align 4 %12, ptr align 4 %7, i64 4, i1 false)
  %21 = getelementptr inbounds nuw %"class.clang::SourceLocation", ptr %12, i32 0, i32 0
  %22 = load i32, ptr %21, align 4
  call void @_ZN5clang8SemaBase4DiagENS_14SourceLocationEjb(ptr dead_on_unwind writable sret(%"class.clang::SemaBase::SemaDiagnosticBuilder") align 8 %11, ptr noundef nonnull align 8 dereferenceable(8) %20, i32 %22, i32 noundef 2634, i1 noundef zeroext false)
  %23 = call noundef i32 @_ZZN5clang11SemaOpenACC12ActOnIntExprENS_20OpenACCDirectiveKindENS_17OpenACCClauseKindENS_14SourceLocationEPNS_4ExprEENK16IntExprConverter11getDiagKindEv(ptr noundef nonnull align 8 dereferenceable(32) %18)
  store i32 %23, ptr %13, align 4
  %24 = call noundef nonnull align 8 dereferenceable(96) ptr @_ZNK5clang8SemaBase21SemaDiagnosticBuilderlsIjvEERKS1_OT_(ptr noundef nonnull align 8 dereferenceable(96) %11, ptr noundef nonnull align 4 dereferenceable(4) %13)
  %25 = getelementptr inbounds nuw %class.IntExprConverter, ptr %18, i32 0, i32 2
  %26 = call noundef nonnull align 8 dereferenceable(96) ptr @_ZN5clanglsINS_17OpenACCClauseKindEEERKNS_8SemaBase21SemaDiagnosticBuilderES5_RKT_(ptr noundef nonnull align 8 dereferenceable(96) %24, ptr noundef nonnull align 4 dereferenceable(4) %25)
  %27 = getelementptr inbounds nuw %class.IntExprConverter, ptr %18, i32 0, i32 1
  %28 = call noundef nonnull align 8 dereferenceable(96) ptr @_ZN5clanglsINS_20OpenACCDirectiveKindEEERKNS_8SemaBase21SemaDiagnosticBuilderES5_RKT_(ptr noundef nonnull align 8 dereferenceable(96) %26, ptr noundef nonnull align 4 dereferenceable(4) %27)
  %29 = call noundef nonnull align 8 dereferenceable(96) ptr @_ZN5clanglsINS_8QualTypeEEERKNS_8SemaBase21SemaDiagnosticBuilderES5_RKT_(ptr noundef nonnull align 8 dereferenceable(96) %28, ptr noundef nonnull align 8 dereferenceable(8) %8)
  call void @_ZN5clang8SemaBase21SemaDiagnosticBuilderC2ERKS1_(ptr noundef nonnull align 8 dereferenceable(96) %0, ptr noundef nonnull align 8 dereferenceable(96) %29)
  call void @_ZN5clang8SemaBase21SemaDiagnosticBuilderD1Ev(ptr noundef nonnull align 8 dereferenceable(96) %11) #11
  ret void
}