; Function Attrs: mustprogress nounwind uwtable
define internal void @_ZZN5clang11SemaOpenACC12ActOnIntExprENS_20OpenACCDirectiveKindENS_17OpenACCClauseKindENS_14SourceLocationEPNS_4ExprEEN16IntExprConverter14diagnoseNotIntERNS_4SemaES3_NS_8QualTypeE(ptr dead_on_unwind noalias nocapture writable writeonly sret(%"class.clang::SemaBase::SemaDiagnosticBuilder") align 8 %0, ptr noundef nonnull align 8 dereferenceable(32) %1, ptr noundef nonnull align 8 dereferenceable(17560) %2, i32 %3, i64 %4) unnamed_addr #0 align 2 {
  %6 = alloca %"class.clang::QualType", align 8
  %7 = alloca %"class.clang::SemaBase::SemaDiagnosticBuilder", align 8
  %8 = alloca i32, align 4
  store i64 %4, ptr %6, align 8
  %9 = getelementptr inbounds i8, ptr %2, i64 8
  call void @_ZN5clang8SemaBase4DiagENS_14SourceLocationEjb(ptr dead_on_unwind nonnull writable sret(%"class.clang::SemaBase::SemaDiagnosticBuilder") align 8 %7, ptr noundef nonnull align 8 dereferenceable(8) %9, i32 %3, i32 noundef 2634, i1 noundef zeroext false) #16
  %10 = getelementptr inbounds i8, ptr %1, i64 12
  %.val = load i32, ptr %10, align 4
  %11 = getelementptr inbounds i8, ptr %1, i64 16
  %.val3 = load i32, ptr %11, align 8
  %.not.i = icmp eq i32 %.val3, 50
  %.not1.i = icmp eq i32 %.val, 20
  %..i = select i1 %.not1.i, i32 2, i32 1
  %.0.i = select i1 %.not.i, i32 %..i, i32 0
  store i32 %.0.i, ptr %8, align 4
  %12 = call noundef nonnull align 8 dereferenceable(96) ptr @_ZNK5clang8SemaBase21SemaDiagnosticBuilderlsIjvEERKS1_OT_(ptr noundef nonnull align 8 dereferenceable(96) %7, ptr noundef nonnull align 4 dereferenceable(4) %8)
  %13 = call noundef nonnull align 8 dereferenceable(96) ptr @_ZN5clanglsINS_17OpenACCClauseKindEEERKNS_8SemaBase21SemaDiagnosticBuilderES5_RKT_(ptr noundef nonnull align 8 dereferenceable(96) %12, ptr noundef nonnull align 4 dereferenceable(4) %11)
  %14 = call noundef nonnull align 8 dereferenceable(96) ptr @_ZN5clanglsINS_20OpenACCDirectiveKindEEERKNS_8SemaBase21SemaDiagnosticBuilderES5_RKT_(ptr noundef nonnull align 8 dereferenceable(96) %13, ptr noundef nonnull align 4 dereferenceable(4) %10)
  %15 = call noundef nonnull align 8 dereferenceable(96) ptr @_ZN5clanglsINS_8QualTypeEEERKNS_8SemaBase21SemaDiagnosticBuilderES5_RKT_(ptr noundef nonnull align 8 dereferenceable(96) %14, ptr noundef nonnull align 8 dereferenceable(8) %6)
  call void @llvm.memcpy.p0.p0.i64(ptr noundef nonnull align 8 dereferenceable(25) %0, ptr noundef nonnull align 8 dereferenceable(25) %15, i64 25, i1 false)
  %16 = getelementptr inbounds i8, ptr %15, i64 80
  %17 = getelementptr inbounds i8, ptr %0, i64 80
  store i8 0, ptr %17, align 8
  %18 = load i8, ptr %16, align 8
  %19 = trunc i8 %18 to i1
  br i1 %19, label %20, label %_ZN5clang8SemaBase21SemaDiagnosticBuilderC2ERKS1_.exit

20:                                               ; preds = %5
  %21 = getelementptr inbounds nuw i8, ptr %0, i64 32
  %22 = getelementptr inbounds nuw i8, ptr %15, i64 32
  %23 = getelementptr inbounds i8, ptr %0, i64 48
  %24 = getelementptr inbounds i8, ptr %0, i64 56
  %25 = getelementptr inbounds i8, ptr %0, i64 57
  %26 = getelementptr inbounds i8, ptr %15, i64 48
  %27 = getelementptr inbounds i8, ptr %0, i64 40
  store i64 0, ptr %27, align 8
  %28 = load ptr, ptr %26, align 8
  store ptr %28, ptr %23, align 8
  %29 = load ptr, ptr %22, align 8
  store ptr %29, ptr %21, align 8
  %30 = getelementptr inbounds i8, ptr %15, i64 56
  %31 = load i8, ptr %30, align 8
  %32 = and i8 %31, 1
  store i8 %32, ptr %24, align 8
  %33 = getelementptr inbounds i8, ptr %15, i64 57
  %34 = load i8, ptr %33, align 1
  %35 = and i8 %34, 1
  store i8 %35, ptr %25, align 1
  store ptr null, ptr %26, align 8
  store i8 0, ptr %30, align 8
  store i8 0, ptr %33, align 1
  %36 = getelementptr inbounds i8, ptr %0, i64 64
  %37 = getelementptr inbounds i8, ptr %15, i64 64
  call void @llvm.memcpy.p0.p0.i64(ptr noundef nonnull align 8 dereferenceable(12) %36, ptr noundef nonnull align 8 dereferenceable(12) %37, i64 12, i1 false)
  store i8 1, ptr %17, align 8
  br label %_ZN5clang8SemaBase21SemaDiagnosticBuilderC2ERKS1_.exit

_ZN5clang8SemaBase21SemaDiagnosticBuilderC2ERKS1_.exit: ; preds = %5, %20
  %38 = getelementptr inbounds nuw i8, ptr %0, i64 88
  %39 = getelementptr inbounds nuw i8, ptr %15, i64 88
  %40 = load i64, ptr %39, align 8
  store i64 %40, ptr %38, align 8
  call void @_ZN5clang8SemaBase21SemaDiagnosticBuilderD1Ev(ptr noundef nonnull align 8 dereferenceable(96) %7) #16
  ret void
}